(lp1
(lp2
S'S (D 1)'
p3
aS'S (D 1)'
p4
aS'S (D 1)'
p5
aS'S (D 1)'
p6
aS'S (D 1)'
p7
aS'S (D 1)'
p8
aS'S (D 1)'
p9
aS'S (D 1)'
p10
aS'S (D 1)'
p11
aS'S (D 1)'
p12
aS'S (D 1)'
p13
aS'S (D 1)'
p14
aS'S (D 1)'
p15
aS'S (D* 2)'
p16
aS'S (D* 2)'
p17
aS'S (D* 2)'
p18
aS'S (D* 2)'
p19
aS'S (D* 2)'
p20
aS'S (D* 2)'
p21
aS'S (D* 2)'
p22
aS'S (D* 2)'
p23
aS'S (D* 2)'
p24
aS'S (D* 2)'
p25
aS'S (D 3)'
p26
aS'S (D 3)'
p27
aS'S (D 4)'
p28
aS'S (D 4)'
p29
aS'S (D 5)'
p30
aS'S (D 5)'
p31
aS'S (D 5)'
p32
aS'S (D 5)'
p33
aS'S (D 5)'
p34
aS'S (D 6)'
p35
aS'S (D 6)'
p36
aS'S (D 6)'
p37
aS'S (D 8)'
p38
aS'S (D 8)'
p39
aS'S (D 9)'
p40
aS'S (S1 (NZ 1)) (S2 (D 0))'
p41
aS'S (S1 (NZ 1)) (S2 (D 0))'
p42
aS'S (S1 (NZ 1)) (S2 (D 0))'
p43
aS'S (S1 (NZ 1)) (S2* (D 1))'
p44
aS'S (S1 (NZ 1)) (S2 (D 3))'
p45
aS'S (S1 (NZ 1)) (S2 (D 3))'
p46
aS'S (S1 (NZ 1)) (S2 (D 5))'
p47
aS'S (S1 (NZ 1)) (S2 (D 5))'
p48
aS'S (S1 (NZ 1)) (S2 (D 5))'
p49
aS'S (S1 (NZ 1)) (S2 (D 5))'
p50
aS'S (S1 (NZ 1)) (S2 (D 7))'
p51
aS'S (S1 (NZ 2)) (S2* (D 1))'
p52
aS'S (S1 (NZ 2)) (S2* (D 1))'
p53
aS'S (S1 (NZ 2)) (S2 (D 6))'
p54
aS'S (S1 (NZ 2)) (S2 (D 6))'
p55
aS'S (S1 (NZ 2)) (S2 (D 7))'
p56
aS'S (S1 (NZ 3)) (S2 (D 0))'
p57
aS'S (S1 (NZ 3)) (S2 (D* 2))'
p58
aS'S (S1 (NZ 3)) (S2 (D 4))'
p59
aS'S (S1 (NZ 3)) (S2 (D 6))'
p60
aS'S (S1 (NZ 3)) (S2 (D 9))'
p61
aS'S (S1 (NZ 4)) (S2 (D 3))'
p62
aS'S (S1 (NZ 4)) (S2 (D 4))'
p63
aS'S (S1 (NZ 4)) (S2 (D 4))'
p64
aS'S (S1 (NZ 4)) (S2 (D 4))'
p65
aS'S (S1 (NZ 4)) (S2 (D 5))'
p66
aS'S (S1 (NZ 5)) (S2 (D 0))'
p67
aS'S (S1 (NZ 6)) (S2 (D 5))'
p68
aS'S (S1 (NZ 7)) (S2 (D 0))'
p69
aS'S (S1 (NZ 7)) (S2* (D 1))'
p70
aS'S (S1 (NZ 8)) (S2 (D 0))'
p71
aS'S (S1 (NZ 9)) (S2 (D 5))'
p72
aS'S (S1 (NZ 9)) (S2 (D 8))'
p73
aS'S (S1 (NZ 1)) (S2 (D 0) (S2 (D 0)))'
p74
aS'S (S1 (NZ 1)) (S2 (D 0) (S2 (D 0)))'
p75
aS'S (S1 (NZ 1)) (S2 (D 0) (S2 (D 6)))'
p76
aS'S (S1 (NZ 2)) (S2 (D 6) (S2 (D 7)))'
p77
aS'S (S1 (NZ 3)) (S2 (D 3) (S2 (D 0)))'
p78
aS'S (S1 (NZ 3)) (S2 (D 5) (S2 (D 0)))'
p79
aS'S (S1 (NZ 3)) (S2 (D 6) (S2 (D 0)))'
p80
aS'S (S1 (NZ 8)) (S2 (D 0) (S2 (D 0)))'
p81
aS'S (S1 (NZ 1)) (S2 (D 0) (S2 (D 0) (S2 (D 0))))'
p82
aS'S (S1 (NZ 1)) (S2 (D 0) (S2 (D 0) (S2 (D 0))))'
p83
aS'S (S1 (NZ 1)) (S2 (D 8) (S2 (D 6) (S2 (D 8))))'
p84
aS'S (S1 (NZ 1)) (S2 (D 9) (S2 (D 6) (S2* (D 1))))'
p85
aS'S (S1 (NZ 1)) (S2 (D 9) (S2 (D 6) (S2 (D 6))))'
p86
aS'S (S1 (NZ 1)) (S2 (D 9) (S2 (D 6) (S2 (D 7))))'
p87
aS'S (S1 (NZ 1)) (S2 (D 9) (S2 (D 7) (S2 (D 0))))'
p88
aS'S (S1 (NZ 1)) (S2 (D 9) (S2 (D 7) (S2 (D 5))))'
p89
aS'S (S1 (NZ 1)) (S2 (D 9) (S2 (D 7) (S2 (D 9))))'
p90
aS'S (S1 (NZ 1)) (S2 (D 9) (S2 (D 8) (S2 (D 0))))'
p91
aS'S (S1 (NZ 1)) (S2 (D 9) (S2 (D 8) (S2 (D* 2))))'
p92
aS'S (S1 (NZ 1)) (S2 (D 9) (S2 (D 8) (S2 (D 5))))'
p93
aS'S (S1 (NZ 1)) (S2 (D 9) (S2 (D 8) (S2 (D 6))))'
p94
aS'S (S1 (NZ 1)) (S2 (D 9) (S2 (D 8) (S2 (D 7))))'
p95
aS'S (S1 (NZ 1)) (S2 (D 9) (S2 (D 8) (S2 (D 8))))'
p96
aS'S (S1 (NZ 1)) (S2 (D 9) (S2 (D 8) (S2 (D 8))))'
p97
aS'S (S1 (NZ 1)) (S2 (D 9) (S2 (D 8) (S2 (D 8))))'
p98
aS'S (S1 (NZ 1)) (S2 (D 9) (S2 (D 8) (S2 (D 9))))'
p99
aS'S (S1 (NZ 1)) (S2 (D 9) (S2 (D 9) (S2 (D* 2))))'
p100
aS'S (S1 (NZ 1)) (S2 (D 9) (S2 (D 9) (S2 (D 3))))'
p101
aS'S (S1 (NZ 2)) (S2 (D 0) (S2 (D 1) (S2 (D 8))))'
p102
aa(dp103
S'(S2'
p104
I5
sS'S'
I100
sS'(D'
p105
I13
sa(dp106
g51
I1
sg77
I1
sg67
I1
sS'(D 2)'
p107
I13
sg40
I1
sg68
I1
sg61
I1
sg59
I1
sg60
I1
sg102
I1
sg101
I1
sg30
I5
sg82
I2
sg74
I2
sg71
I1
sg69
I1
sg3
I13
sg87
I1
sg63
I3
sg88
I1
sg94
I1
sS'S (S1 (NZ 3)) (S2  (D) )'
p108
I1
sS'S (S1 (NZ 1)) (S2 (D 9) (S2 (D 9) (S2  (D) )))'
p109
I1
sg78
I1
sg73
I1
sg89
I1
sg95
I1
sg86
I1
sg45
I2
sS'S (S1 (NZ 1))  (S2)'
p110
I1
sg99
I1
sg38
I2
sS'S (S1 (NZ 7))  (S2)'
p111
I1
sS'S (S1 (NZ 2))  (S2)'
p112
I2
sg56
I1
sS'S  (D)'
p113
I10
sg26
I2
sg91
I1
sg57
I1
sg79
I1
sg41
I3
sg47
I4
sg93
I1
sg84
I1
sg35
I3
sg81
I1
sg54
I2
sg62
I1
sS'(S2 (D 1))'
p114
I5
sg28
I2
sg96
I3
sS'S (S1 (NZ 1)) (S2 (D 9) (S2 (D 8) (S2  (D) )))'
p115
I1
sS'S (S1 (NZ 1)) (S2 (D 9) (S2 (D 6)  (S2) ))'
p116
I1
sg90
I1
sg72
I1
sg76
I1
sg66
I1
sg80
I1
saS'[S] ||| 1 7 ||| 1 7 ||| LogProb=-4.60517018599\n[S] ||| 2 6 7 ||| 2 6 7 ||| LogProb=-4.60517018599\n[S] ||| 5 0 ||| 5 0 ||| LogProb=-4.60517018599\n[D] ||| 2 ||| 2 ||| LogProb=0.0\n[S] ||| 9 ||| 9 ||| LogProb=-4.60517018599\n[S] ||| 6 5 ||| 6 5 ||| LogProb=-4.60517018599\n[S] ||| 3 9 ||| 3 9 ||| LogProb=-4.60517018599\n[S] ||| 3 4 ||| 3 4 ||| LogProb=-4.60517018599\n[S] ||| 3 6 ||| 3 6 ||| LogProb=-4.60517018599\n[S] ||| 2 0 1 8 ||| 2 0 1 8 ||| LogProb=-4.60517018599\n[S] ||| 1 9 9 3 ||| 1 9 9 3 ||| LogProb=-4.60517018599\n[S] ||| 5 ||| 5 ||| LogProb=-2.99573227355\n[S] ||| 1 0 0 0 ||| 1 0 0 0 ||| LogProb=-3.91202300543\n[S] ||| 1 0 0 ||| 1 0 0 ||| LogProb=-3.91202300543\n[S] ||| 8 0 ||| 8 0 ||| LogProb=-4.60517018599\n[S] ||| 7 0 ||| 7 0 ||| LogProb=-4.60517018599\n[S] ||| 1 ||| 1 ||| LogProb=-2.04022082853\n[S] ||| 1 9 6 7 ||| 1 9 6 7 ||| LogProb=-4.60517018599\n[S] ||| 4 4 ||| 4 4 ||| LogProb=-3.50655789732\n[S] ||| 1 9 7 0 ||| 1 9 7 0 ||| LogProb=-4.60517018599\n[S] ||| 1 9 8 6 ||| 1 9 8 6 ||| LogProb=-4.60517018599\n[S] ||| 3 [D,1] ||| 3 [D,1] ||| LogProb=-4.60517018599\n[S] ||| 1 9 9 [D,1] ||| 1 9 9 [D,1] ||| LogProb=-4.60517018599\n[S] ||| 3 3 0 ||| 3 3 0 ||| LogProb=-4.60517018599\n[S] ||| 9 8 ||| 9 8 ||| LogProb=-4.60517018599\n[S] ||| 1 9 7 5 ||| 1 9 7 5 ||| LogProb=-4.60517018599\n[S] ||| 1 9 8 7 ||| 1 9 8 7 ||| LogProb=-4.60517018599\n[S] ||| 1 9 6 6 ||| 1 9 6 6 ||| LogProb=-4.60517018599\n[S] ||| 1 3 ||| 1 3 ||| LogProb=-3.91202300543\n[S] ||| 1 [S2,1] ||| 1 [S2,1] ||| LogProb=-4.60517018599\n[S] ||| 1 9 8 9 ||| 1 9 8 9 ||| LogProb=-4.60517018599\n[S] ||| 8 ||| 8 ||| LogProb=-3.91202300543\n[S] ||| 7 [S2,1] ||| 7 [S2,1] ||| LogProb=-4.60517018599\n[S] ||| 2 [S2,1] ||| 2 [S2,1] ||| LogProb=-3.91202300543\n[S] ||| 2 7 ||| 2 7 ||| LogProb=-4.60517018599\n[S] ||| [D,1] ||| [D,1] ||| LogProb=-2.30258509299\n[S] ||| 3 ||| 3 ||| LogProb=-3.91202300543\n[S] ||| 1 9 8 0 ||| 1 9 8 0 ||| LogProb=-4.60517018599\n[S] ||| 3 0 ||| 3 0 ||| LogProb=-4.60517018599\n[S] ||| 3 5 0 ||| 3 5 0 ||| LogProb=-4.60517018599\n[S] ||| 1 0 ||| 1 0 ||| LogProb=-3.50655789732\n[S] ||| 1 5 ||| 1 5 ||| LogProb=-3.21887582487\n[S] ||| 1 9 8 5 ||| 1 9 8 5 ||| LogProb=-4.60517018599\n[S] ||| 1 8 6 8 ||| 1 8 6 8 ||| LogProb=-4.60517018599\n[S] ||| 6 ||| 6 ||| LogProb=-3.50655789732\n[S] ||| 8 0 0 ||| 8 0 0 ||| LogProb=-4.60517018599\n[S] ||| 2 6 ||| 2 6 ||| LogProb=-3.91202300543\n[S] ||| 4 3 ||| 4 3 ||| LogProb=-4.60517018599\n[S2] ||| 1 ||| 1 ||| LogProb=0.0\n[S] ||| 4 ||| 4 ||| LogProb=-3.91202300543\n[S] ||| 1 9 8 8 ||| 1 9 8 8 ||| LogProb=-3.50655789732\n[S] ||| 1 9 8 [D,1] ||| 1 9 8 [D,1] ||| LogProb=-4.60517018599\n[S] ||| 1 9 6 [S2,1] ||| 1 9 6 [S2,1] ||| LogProb=-4.60517018599\n[S] ||| 1 9 7 9 ||| 1 9 7 9 ||| LogProb=-4.60517018599\n[S] ||| 9 5 ||| 9 5 ||| LogProb=-4.60517018599\n[S] ||| 1 0 6 ||| 1 0 6 ||| LogProb=-4.60517018599\n[S] ||| 4 5 ||| 4 5 ||| LogProb=-4.60517018599\n[S] ||| 3 6 0 ||| 3 6 0 ||| LogProb=-4.60517018599\n'
p117
a.